; ModuleID = '15/2225.cpp'
source_filename = "15/2225.cpp"
target datalayout = "e-m:e-p270:32:32-p271:32:32-p272:64:64-i64:64-f80:128-n8:16:32:64-S128"
target triple = "x86_64-pc-linux-gnu"

%"class.std::ios_base::Init" = type { i8 }
%"class.std::basic_istream" = type { i32 (...)**, i64, %"class.std::basic_ios" }
%"class.std::basic_ios" = type { %"class.std::ios_base", %"class.std::basic_ostream"*, i8, i8, %"class.std::basic_streambuf"*, %"class.std::ctype"*, %"class.std::num_put"*, %"class.std::num_get"* }
%"class.std::ios_base" = type { i32 (...)**, i64, i64, i32, i32, i32, %"struct.std::ios_base::_Callback_list"*, %"struct.std::ios_base::_Words", [8 x %"struct.std::ios_base::_Words"], i32, %"struct.std::ios_base::_Words"*, %"class.std::locale" }
%"struct.std::ios_base::_Callback_list" = type { %"struct.std::ios_base::_Callback_list"*, void (i32, %"class.std::ios_base"*, i32)*, i32, i32 }
%"struct.std::ios_base::_Words" = type { i8*, i64 }
%"class.std::locale" = type { %"class.std::locale::_Impl"* }
%"class.std::locale::_Impl" = type { i32, %"class.std::locale::facet"**, i64, %"class.std::locale::facet"**, i8** }
%"class.std::locale::facet" = type <{ i32 (...)**, i32, [4 x i8] }>
%"class.std::basic_ostream" = type { i32 (...)**, %"class.std::basic_ios" }
%"class.std::basic_streambuf" = type { i32 (...)**, i8*, i8*, i8*, i8*, i8*, i8*, %"class.std::locale" }
%"class.std::ctype" = type <{ %"class.std::locale::facet.base", [4 x i8], %struct.__locale_struct*, i8, [7 x i8], i32*, i32*, i16*, i8, [256 x i8], [256 x i8], i8, [6 x i8] }>
%"class.std::locale::facet.base" = type <{ i32 (...)**, i32 }>
%struct.__locale_struct = type { [13 x %struct.__locale_data*], i16*, i32*, i32*, [13 x i8*] }
%struct.__locale_data = type opaque
%"class.std::num_put" = type { %"class.std::locale::facet.base", [4 x i8] }
%"class.std::num_get" = type { %"class.std::locale::facet.base", [4 x i8] }

@_ZStL8__ioinit = internal global %"class.std::ios_base::Init" zeroinitializer, align 1
@__dso_handle = external hidden global i8
@_ZSt3cin = external dso_local global %"class.std::basic_istream", align 8
@_ZSt4cout = external dso_local global %"class.std::basic_ostream", align 8
@llvm.global_ctors = appending global [1 x { i32, void ()*, i8* }] [{ i32, void ()*, i8* } { i32 65535, void ()* @_GLOBAL__sub_I_2225.cpp, i8* null }]

; Function Attrs: noinline uwtable
define internal void @__cxx_global_var_init() #0 section ".text.startup" {
  call void @_ZNSt8ios_base4InitC1Ev(%"class.std::ios_base::Init"* @_ZStL8__ioinit)
  %1 = call i32 @__cxa_atexit(void (i8*)* bitcast (void (%"class.std::ios_base::Init"*)* @_ZNSt8ios_base4InitD1Ev to void (i8*)*), i8* getelementptr inbounds (%"class.std::ios_base::Init", %"class.std::ios_base::Init"* @_ZStL8__ioinit, i32 0, i32 0), i8* @__dso_handle) #3
  ret void
}

declare dso_local void @_ZNSt8ios_base4InitC1Ev(%"class.std::ios_base::Init"*) unnamed_addr #1

; Function Attrs: nounwind
declare dso_local void @_ZNSt8ios_base4InitD1Ev(%"class.std::ios_base::Init"*) unnamed_addr #2

; Function Attrs: nounwind
declare dso_local i32 @__cxa_atexit(void (i8*)*, i8*, i8*) #3

; Function Attrs: noinline norecurse uwtable
define dso_local i32 @main() #4 {
  %1 = alloca i32, align 4
  %2 = alloca i32, align 4
  %3 = alloca i32, align 4
  %4 = alloca i32, align 4
  %5 = alloca [100 x [100 x i32]], align 16
  %6 = alloca [100 x [2 x i32]], align 16
  %7 = alloca i32, align 4
  %8 = alloca i32, align 4
  %9 = alloca [100 x i32]*, align 8
  %10 = alloca [2 x i32]*, align 8
  store i32 0, i32* %1, align 4
  store i32 0, i32* %7, align 4
  store i32 0, i32* %8, align 4
  %11 = getelementptr inbounds [100 x [100 x i32]], [100 x [100 x i32]]* %5, i64 0, i64 0
  store [100 x i32]* %11, [100 x i32]** %9, align 8
  %12 = getelementptr inbounds [100 x [2 x i32]], [100 x [2 x i32]]* %6, i64 0, i64 0
  store [2 x i32]* %12, [2 x i32]** %10, align 8
  %13 = call dereferenceable(280) %"class.std::basic_istream"* @_ZNSirsERi(%"class.std::basic_istream"* @_ZSt3cin, i32* dereferenceable(4) %2)
  store i32 0, i32* %3, align 4
  br label %14

14:                                               ; preds = %65, %0
  %15 = load i32, i32* %3, align 4
  %16 = load i32, i32* %2, align 4
  %17 = icmp slt i32 %15, %16
  br i1 %17, label %18, label %68

18:                                               ; preds = %14
  store i32 0, i32* %4, align 4
  br label %19

19:                                               ; preds = %61, %18
  %20 = load i32, i32* %4, align 4
  %21 = load i32, i32* %2, align 4
  %22 = icmp slt i32 %20, %21
  br i1 %22, label %23, label %64

23:                                               ; preds = %19
  %24 = load [100 x i32]*, [100 x i32]** %9, align 8
  %25 = load i32, i32* %3, align 4
  %26 = sext i32 %25 to i64
  %27 = getelementptr inbounds [100 x i32], [100 x i32]* %24, i64 %26
  %28 = getelementptr inbounds [100 x i32], [100 x i32]* %27, i64 0, i64 0
  %29 = load i32, i32* %4, align 4
  %30 = sext i32 %29 to i64
  %31 = getelementptr inbounds i32, i32* %28, i64 %30
  %32 = call dereferenceable(280) %"class.std::basic_istream"* @_ZNSirsERi(%"class.std::basic_istream"* @_ZSt3cin, i32* dereferenceable(4) %31)
  %33 = load [100 x i32]*, [100 x i32]** %9, align 8
  %34 = load i32, i32* %3, align 4
  %35 = sext i32 %34 to i64
  %36 = getelementptr inbounds [100 x i32], [100 x i32]* %33, i64 %35
  %37 = getelementptr inbounds [100 x i32], [100 x i32]* %36, i64 0, i64 0
  %38 = load i32, i32* %4, align 4
  %39 = sext i32 %38 to i64
  %40 = getelementptr inbounds i32, i32* %37, i64 %39
  %41 = load i32, i32* %40, align 4
  %42 = icmp eq i32 %41, 0
  br i1 %42, label %43, label %60

43:                                               ; preds = %23
  %44 = load i32, i32* %3, align 4
  %45 = load [2 x i32]*, [2 x i32]** %10, align 8
  %46 = load i32, i32* %7, align 4
  %47 = sext i32 %46 to i64
  %48 = getelementptr inbounds [2 x i32], [2 x i32]* %45, i64 %47
  %49 = getelementptr inbounds [2 x i32], [2 x i32]* %48, i64 0, i64 0
  %50 = getelementptr inbounds i32, i32* %49, i64 0
  store i32 %44, i32* %50, align 4
  %51 = load i32, i32* %4, align 4
  %52 = load [2 x i32]*, [2 x i32]** %10, align 8
  %53 = load i32, i32* %7, align 4
  %54 = sext i32 %53 to i64
  %55 = getelementptr inbounds [2 x i32], [2 x i32]* %52, i64 %54
  %56 = getelementptr inbounds [2 x i32], [2 x i32]* %55, i64 0, i64 0
  %57 = getelementptr inbounds i32, i32* %56, i64 1
  store i32 %51, i32* %57, align 4
  %58 = load i32, i32* %7, align 4
  %59 = add nsw i32 %58, 1
  store i32 %59, i32* %7, align 4
  br label %60

60:                                               ; preds = %43, %23
  br label %61

61:                                               ; preds = %60
  %62 = load i32, i32* %4, align 4
  %63 = add nsw i32 %62, 1
  store i32 %63, i32* %4, align 4
  br label %19

64:                                               ; preds = %19
  br label %65

65:                                               ; preds = %64
  %66 = load i32, i32* %3, align 4
  %67 = add nsw i32 %66, 1
  store i32 %67, i32* %3, align 4
  br label %14

68:                                               ; preds = %14
  %69 = load [2 x i32]*, [2 x i32]** %10, align 8
  %70 = load i32, i32* %7, align 4
  %71 = sext i32 %70 to i64
  %72 = getelementptr inbounds [2 x i32], [2 x i32]* %69, i64 %71
  %73 = getelementptr inbounds [2 x i32], [2 x i32]* %72, i64 -1
  %74 = getelementptr inbounds [2 x i32], [2 x i32]* %73, i64 0, i64 0
  %75 = getelementptr inbounds i32, i32* %74, i64 0
  %76 = load i32, i32* %75, align 4
  %77 = load [2 x i32]*, [2 x i32]** %10, align 8
  %78 = getelementptr inbounds [2 x i32], [2 x i32]* %77, i64 0
  %79 = getelementptr inbounds [2 x i32], [2 x i32]* %78, i64 0, i64 0
  %80 = getelementptr inbounds i32, i32* %79, i64 0
  %81 = load i32, i32* %80, align 4
  %82 = sub nsw i32 %76, %81
  %83 = sub nsw i32 %82, 1
  %84 = load [2 x i32]*, [2 x i32]** %10, align 8
  %85 = load i32, i32* %7, align 4
  %86 = sext i32 %85 to i64
  %87 = getelementptr inbounds [2 x i32], [2 x i32]* %84, i64 %86
  %88 = getelementptr inbounds [2 x i32], [2 x i32]* %87, i64 -1
  %89 = getelementptr inbounds [2 x i32], [2 x i32]* %88, i64 0, i64 0
  %90 = getelementptr inbounds i32, i32* %89, i64 1
  %91 = load i32, i32* %90, align 4
  %92 = load [2 x i32]*, [2 x i32]** %10, align 8
  %93 = getelementptr inbounds [2 x i32], [2 x i32]* %92, i64 0
  %94 = getelementptr inbounds [2 x i32], [2 x i32]* %93, i64 0, i64 0
  %95 = getelementptr inbounds i32, i32* %94, i64 1
  %96 = load i32, i32* %95, align 4
  %97 = sub nsw i32 %91, %96
  %98 = sub nsw i32 %97, 1
  %99 = mul nsw i32 %83, %98
  store i32 %99, i32* %8, align 4
  %100 = load i32, i32* %8, align 4
  %101 = call dereferenceable(272) %"class.std::basic_ostream"* @_ZNSolsEi(%"class.std::basic_ostream"* @_ZSt4cout, i32 %100)
  %102 = call dereferenceable(272) %"class.std::basic_ostream"* @_ZNSolsEPFRSoS_E(%"class.std::basic_ostream"* %101, %"class.std::basic_ostream"* (%"class.std::basic_ostream"*)* @_ZSt4endlIcSt11char_traitsIcEERSt13basic_ostreamIT_T0_ES6_)
  ret i32 0
}

declare dso_local dereferenceable(280) %"class.std::basic_istream"* @_ZNSirsERi(%"class.std::basic_istream"*, i32* dereferenceable(4)) #1

declare dso_local dereferenceable(272) %"class.std::basic_ostream"* @_ZNSolsEi(%"class.std::basic_ostream"*, i32) #1

declare dso_local dereferenceable(272) %"class.std::basic_ostream"* @_ZNSolsEPFRSoS_E(%"class.std::basic_ostream"*, %"class.std::basic_ostream"* (%"class.std::basic_ostream"*)*) #1

declare dso_local dereferenceable(272) %"class.std::basic_ostream"* @_ZSt4endlIcSt11char_traitsIcEERSt13basic_ostreamIT_T0_ES6_(%"class.std::basic_ostream"* dereferenceable(272)) #1

; Function Attrs: noinline uwtable
define internal void @_GLOBAL__sub_I_2225.cpp() #0 section ".text.startup" {
  call void @__cxx_global_var_init()
  ret void
}


!llvm.module.flags = !{!0}
!llvm.ident = !{!1}

!0 = !{i32 1, !"wchar_size", i32 4}
!1 = !{!"clang version 10.0.0-4ubuntu1 "}
